; ModuleID = 'source-C-CXX/11/1599.c'
source_filename = "source-C-CXX/11/1599.c"
target datalayout = "e-m:e-p270:32:32-p271:32:32-p272:64:64-i64:64-f80:128-n8:16:32:64-S128"
target triple = "x86_64-pc-linux-gnu"

@.str = private unnamed_addr constant [3 x i8] c"%d\00", align 1

; Function Attrs: nofree nounwind sspstrong uwtable
define dso_local i32 @main() local_unnamed_addr #0 {
  %1 = alloca [100 x i32], align 16
  %2 = bitcast [100 x i32]* %1 to i8*
  %3 = alloca i32, align 4
  call void @llvm.lifetime.start.p0i8(i64 400, i8* nonnull %2) #5
  %4 = bitcast i32* %3 to i8*
  call void @llvm.lifetime.start.p0i8(i64 4, i8* nonnull %4) #5
  br label %5

5:                                                ; preds = %44, %0
  %6 = phi i32 [ 0, %0 ], [ %45, %44 ]
  call void @llvm.memset.p0i8.i64(i8* noundef nonnull align 16 dereferenceable(400) %2, i8 0, i64 400, i1 false)
  %7 = call i32 (i8*, ...) @__isoc99_scanf(i8* getelementptr inbounds ([3 x i8], [3 x i8]* @.str, i64 0, i64 0), i32* nonnull %3)
  %8 = load i32, i32* %3, align 4, !tbaa !5
  %9 = add i32 %8, 1
  %10 = icmp ult i32 %9, 2
  br i1 %10, label %19, label %11

11:                                               ; preds = %5, %11
  %12 = phi i32 [ %16, %11 ], [ %8, %5 ]
  %13 = sext i32 %12 to i64
  %14 = getelementptr inbounds [100 x i32], [100 x i32]* %1, i64 0, i64 %13
  store i32 1, i32* %14, align 4, !tbaa !5
  %15 = call i32 (i8*, ...) @__isoc99_scanf(i8* getelementptr inbounds ([3 x i8], [3 x i8]* @.str, i64 0, i64 0), i32* nonnull %3)
  %16 = load i32, i32* %3, align 4, !tbaa !5
  %17 = add i32 %16, 1
  %18 = icmp ult i32 %17, 2
  br i1 %18, label %19, label %11

19:                                               ; preds = %11, %5
  %20 = phi i32 [ %8, %5 ], [ %16, %11 ]
  %21 = icmp eq i32 %20, -1
  br i1 %21, label %47, label %22

22:                                               ; preds = %19
  %23 = icmp eq i32 %6, 0
  br i1 %23, label %26, label %24

24:                                               ; preds = %22
  %25 = call i32 @putchar(i32 10)
  br label %26

26:                                               ; preds = %24, %22
  br label %27

27:                                               ; preds = %59, %26
  %28 = phi i64 [ 1, %26 ], [ %61, %59 ]
  %29 = phi i32 [ 0, %26 ], [ %60, %59 ]
  %30 = getelementptr inbounds [100 x i32], [100 x i32]* %1, i64 0, i64 %28
  %31 = load i32, i32* %30, align 4, !tbaa !5
  %32 = icmp eq i32 %31, 0
  br i1 %32, label %40, label %33

33:                                               ; preds = %27
  %34 = shl nuw nsw i64 %28, 1
  %35 = getelementptr inbounds [100 x i32], [100 x i32]* %1, i64 0, i64 %34
  %36 = load i32, i32* %35, align 8, !tbaa !5
  %37 = icmp ne i32 %36, 0
  %38 = zext i1 %37 to i32
  %39 = add nsw i32 %29, %38
  br label %40

40:                                               ; preds = %33, %27
  %41 = phi i32 [ %29, %27 ], [ %39, %33 ]
  %42 = add nuw nsw i64 %28, 1
  %43 = icmp eq i64 %42, 50
  br i1 %43, label %44, label %48, !llvm.loop !9

44:                                               ; preds = %40
  %45 = add nuw nsw i32 %6, 1
  %46 = call i32 (i8*, ...) @printf(i8* nonnull dereferenceable(1) getelementptr inbounds ([3 x i8], [3 x i8]* @.str, i64 0, i64 0), i32 %41)
  br label %5

47:                                               ; preds = %19
  call void @llvm.lifetime.end.p0i8(i64 4, i8* nonnull %4) #5
  call void @llvm.lifetime.end.p0i8(i64 400, i8* nonnull %2) #5
  ret i32 0

48:                                               ; preds = %40
  %49 = getelementptr inbounds [100 x i32], [100 x i32]* %1, i64 0, i64 %42
  %50 = load i32, i32* %49, align 4, !tbaa !5
  %51 = icmp eq i32 %50, 0
  br i1 %51, label %59, label %52

52:                                               ; preds = %48
  %53 = shl nuw nsw i64 %42, 1
  %54 = getelementptr inbounds [100 x i32], [100 x i32]* %1, i64 0, i64 %53
  %55 = load i32, i32* %54, align 8, !tbaa !5
  %56 = icmp ne i32 %55, 0
  %57 = zext i1 %56 to i32
  %58 = add nsw i32 %41, %57
  br label %59

59:                                               ; preds = %52, %48
  %60 = phi i32 [ %41, %48 ], [ %58, %52 ]
  %61 = add nuw nsw i64 %28, 2
  br label %27
}

; Function Attrs: argmemonly mustprogress nofree nosync nounwind willreturn
declare void @llvm.lifetime.start.p0i8(i64 immarg, i8* nocapture) #1

; Function Attrs: nofree nounwind
declare noundef i32 @__isoc99_scanf(i8* nocapture noundef readonly, ...) local_unnamed_addr #2

; Function Attrs: nofree nounwind
declare noundef i32 @printf(i8* nocapture noundef readonly, ...) local_unnamed_addr #2

; Function Attrs: argmemonly mustprogress nofree nosync nounwind willreturn
declare void @llvm.lifetime.end.p0i8(i64 immarg, i8* nocapture) #1

; Function Attrs: nofree nounwind
declare noundef i32 @putchar(i32 noundef) local_unnamed_addr #3

; Function Attrs: argmemonly nofree nounwind willreturn writeonly
declare void @llvm.memset.p0i8.i64(i8* nocapture writeonly, i8, i64, i1 immarg) #4


!llvm.module.flags = !{!0, !1, !2, !3}
!llvm.ident = !{!4}

!0 = !{i32 1, !"wchar_size", i32 4}
!1 = !{i32 7, !"PIC Level", i32 2}
!2 = !{i32 7, !"PIE Level", i32 2}
!3 = !{i32 7, !"uwtable", i32 1}
!4 = !{!"clang version 13.0.0"}
!5 = !{!6, !6, i64 0}
!6 = !{!"int", !7, i64 0}
!7 = !{!"omnipotent char", !8, i64 0}
!8 = !{!"Simple C/C++ TBAA"}
!9 = distinct !{!9, !10}
!10 = !{!"llvm.loop.mustprogress"}
